target datalayout = "e-m:e-p270:32:32-p271:32:32-p272:64:64-i64:64-i128:128-f80:128-n8:16:32:64-S128"
target triple = "x86_64-pc-linux-gnu"

%struct.ossl_param_st = type { ptr, i32, ptr, i64, i64 }

@.str.9 = private unnamed_addr constant [31 x i8] c"../openssl/test/fake_rsaprov.c\00", align 1
@fake_rsa_scheme = internal constant [10 x i8] c"fake_rsa:\00", align 1
@fake_rsa_openpwtest = internal constant [20 x i8] c"fake_rsa:openpwtest\00", align 16
@.str.43 = private unnamed_addr constant [19 x i8] c"Passphrase Testing\00", align 1
@.str.45 = private unnamed_addr constant [44 x i8] c"fake_rsa_open_ex failed passphrase callback\00", align 1
@.str.46 = private unnamed_addr constant [41 x i8] c"fake_rsa_open_ex failed passphrase check\00", align 1
@.str.47 = private unnamed_addr constant [9 x i8] c"storectx\00", align 1
@.str.48 = private unnamed_addr constant [24 x i8] c"fake_rsa_open_ex called\00", align 1

; Function Attrs: nounwind uwtable
define internal ptr @fake_rsa_st_open_ex(ptr noundef %0, ptr noundef %1, ptr noundef %2, ptr noundef %3, ptr noundef %4) #0 {
  %6 = alloca ptr, align 8
  %7 = alloca ptr, align 8
  %8 = alloca ptr, align 8
  %9 = alloca ptr, align 8
  %10 = alloca ptr, align 8
  %11 = alloca ptr, align 8
  %12 = alloca ptr, align 8
  %13 = alloca i32, align 4
  %14 = alloca ptr, align 8
  %15 = alloca [20 x i8], align 16
  %16 = alloca i64, align 8
  %17 = alloca [2 x %struct.ossl_param_st], align 16
  store ptr %0, ptr %7, align 8, !tbaa !19
  store ptr %1, ptr %8, align 8, !tbaa !22
  store ptr %2, ptr %9, align 8, !tbaa !24
  store ptr %3, ptr %10, align 8, !tbaa !19
  store ptr %4, ptr %11, align 8, !tbaa !19
  call void @llvm.lifetime.start.p0(i64 8, ptr %12) #6
  store ptr null, ptr %12, align 8, !tbaa !22
  %18 = load ptr, ptr %8, align 8, !tbaa !22
  %19 = call i32 @strncmp(ptr noundef %18, ptr noundef @fake_rsa_scheme, i64 noundef 9) #7
  %20 = icmp ne i32 %19, 0
  br i1 %20, label %21, label %22

21:                                               ; preds = %5
  store ptr null, ptr %6, align 8
  store i32 1, ptr %13, align 4
  br label %56

22:                                               ; preds = %5
  %23 = load ptr, ptr %8, align 8, !tbaa !22
  %24 = call i32 @strncmp(ptr noundef %23, ptr noundef @fake_rsa_openpwtest, i64 noundef 19) #7
  %25 = icmp eq i32 %24, 0
  br i1 %25, label %26, label %48

26:                                               ; preds = %22
  call void @llvm.lifetime.start.p0(i64 8, ptr %14) #6
  store ptr @.str.43, ptr %14, align 8, !tbaa !22
  call void @llvm.lifetime.start.p0(i64 20, ptr %15) #6
  call void @llvm.memset.p0.i64(ptr align 16 %15, i8 0, i64 20, i1 false)
  call void @llvm.lifetime.start.p0(i64 8, ptr %16) #6
  store i64 0, ptr %16, align 8, !tbaa !33
  call void @llvm.lifetime.start.p0(i64 80, ptr %17) #6
  call void @llvm.memcpy.p0.p0.i64(ptr align 16 %17, ptr align 16 @__const.fake_rsa_st_open_ex.pw_params, i64 80, i1 false)
  %27 = load ptr, ptr %10, align 8, !tbaa !19
  %28 = icmp eq ptr %27, null
  br i1 %28, label %29, label %30

29:                                               ; preds = %26
  store ptr null, ptr %6, align 8
  store i32 1, ptr %13, align 4
  br label %45

30:                                               ; preds = %26
  %31 = load ptr, ptr %10, align 8, !tbaa !19
  %32 = getelementptr inbounds [20 x i8], ptr %15, i64 0, i64 0
  %33 = getelementptr inbounds [2 x %struct.ossl_param_st], ptr %17, i64 0, i64 0
  %34 = load ptr, ptr %11, align 8, !tbaa !19
  %35 = call i32 %31(ptr noundef %32, i64 noundef 20, ptr noundef %16, ptr noundef %33, ptr noundef %34)
  %36 = icmp ne i32 %35, 0
  br i1 %36, label %38, label %37

37:                                               ; preds = %30
  call void (ptr, i32, ptr, ...) @test_info(ptr noundef @.str.9, i32 noundef 568, ptr noundef @.str.45)
  store ptr null, ptr %6, align 8
  store i32 1, ptr %13, align 4
  br label %45

38:                                               ; preds = %30
  %39 = load ptr, ptr %14, align 8, !tbaa !22
  %40 = getelementptr inbounds [20 x i8], ptr %15, i64 0, i64 0
  %41 = call i32 @strncmp(ptr noundef %39, ptr noundef %40, i64 noundef 7) #7
  %42 = icmp ne i32 %41, 0
  br i1 %42, label %43, label %44

43:                                               ; preds = %38
  call void (ptr, i32, ptr, ...) @test_info(ptr noundef @.str.9, i32 noundef 572, ptr noundef @.str.46)
  store ptr null, ptr %6, align 8
  store i32 1, ptr %13, align 4
  br label %45

44:                                               ; preds = %38
  store i32 0, ptr %13, align 4
  br label %45

45:                                               ; preds = %44, %43, %37, %29
  call void @llvm.lifetime.end.p0(i64 80, ptr %17) #6
  call void @llvm.lifetime.end.p0(i64 8, ptr %16) #6
  call void @llvm.lifetime.end.p0(i64 20, ptr %15) #6
  call void @llvm.lifetime.end.p0(i64 8, ptr %14) #6
  %46 = load i32, ptr %13, align 4
  switch i32 %46, label %56 [
    i32 0, label %47
  ]

47:                                               ; preds = %45
  br label %48

48:                                               ; preds = %47, %22
  %49 = call noalias ptr @CRYPTO_zalloc(i64 noundef 1, ptr noundef @.str.9, i32 noundef 577)
  store ptr %49, ptr %12, align 8, !tbaa !22
  %50 = load ptr, ptr %12, align 8, !tbaa !22
  %51 = call i32 @test_ptr(ptr noundef @.str.9, i32 noundef 578, ptr noundef @.str.47, ptr noundef %50)
  %52 = icmp ne i32 %51, 0
  br i1 %52, label %54, label %53

53:                                               ; preds = %48
  store ptr null, ptr %6, align 8
  store i32 1, ptr %13, align 4
  br label %56

54:                                               ; preds = %48
  call void (ptr, i32, ptr, ...) @test_info(ptr noundef @.str.9, i32 noundef 581, ptr noundef @.str.48)
  %55 = load ptr, ptr %12, align 8, !tbaa !22
  store ptr %55, ptr %6, align 8
  store i32 1, ptr %13, align 4
  br label %56

56:                                               ; preds = %54, %53, %45, %21
  call void @llvm.lifetime.end.p0(i64 8, ptr %12) #6
  %57 = load ptr, ptr %6, align 8
  ret ptr %57
}