; Function Attrs: nounwind uwtable
define internal noundef ptr @fake_rsa_st_open_ex(ptr readnone captures(none) %0, ptr noundef readonly captures(none) %1, ptr readnone captures(none) %2, ptr noundef readonly captures(address_is_null) %3, ptr noundef %4) #1 {
  %6 = alloca [20 x i8], align 16
  %7 = alloca i64, align 8
  %8 = alloca [2 x %struct.ossl_param_st], align 16
  %9 = tail call i32 @strncmp(ptr noundef nonnull dereferenceable(1) %1, ptr noundef nonnull dereferenceable(10) @fake_rsa_scheme, i64 noundef 9) #13
  %.not = icmp eq i32 %9, 0
  br i1 %.not, label %10, label %25

10:                                               ; preds = %5
  %11 = tail call i32 @strncmp(ptr noundef nonnull dereferenceable(1) %1, ptr noundef nonnull dereferenceable(20) @fake_rsa_openpwtest, i64 noundef 19) #13
  %12 = icmp eq i32 %11, 0
  br i1 %12, label %13, label %21

13:                                               ; preds = %10
  call void @llvm.lifetime.start.p0(i64 20, ptr nonnull %6) #12
  call void @llvm.memset.p0.i64(ptr noundef nonnull align 16 dereferenceable(20) %6, i8 0, i64 20, i1 false)
  call void @llvm.lifetime.start.p0(i64 8, ptr nonnull %7) #12
  store i64 0, ptr %7, align 8, !tbaa !15
  call void @llvm.lifetime.start.p0(i64 80, ptr nonnull %8) #12
  call void @llvm.memcpy.p0.p0.i64(ptr noundef nonnull align 16 dereferenceable(80) %8, ptr noundef nonnull align 16 dereferenceable(80) @__const.fake_rsa_st_open_ex.pw_params, i64 80, i1 false)
  %14 = icmp eq ptr %3, null
  br i1 %14, label %.critedge, label %15

15:                                               ; preds = %13
  %16 = call i32 %3(ptr noundef nonnull %6, i64 noundef 20, ptr noundef nonnull %7, ptr noundef nonnull %8, ptr noundef %4) #12
  %.not11 = icmp eq i32 %16, 0
  br i1 %.not11, label %17, label %18

17:                                               ; preds = %15
  call void (ptr, i32, ptr, ...) @test_info(ptr noundef nonnull @.str.9, i32 noundef 568, ptr noundef nonnull @.str.45) #12
  br label %.critedge

18:                                               ; preds = %15
  %bcmp = call i32 @bcmp(ptr noundef nonnull dereferenceable(7) @.str.43, ptr noundef nonnull dereferenceable(7) %6, i64 7)
  %.not12 = icmp eq i32 %bcmp, 0
  br i1 %.not12, label %20, label %19

19:                                               ; preds = %18
  call void (ptr, i32, ptr, ...) @test_info(ptr noundef nonnull @.str.9, i32 noundef 572, ptr noundef nonnull @.str.46) #12
  br label %.critedge

20:                                               ; preds = %18
  call void @llvm.lifetime.end.p0(i64 80, ptr nonnull %8) #12
  call void @llvm.lifetime.end.p0(i64 8, ptr nonnull %7) #12
  call void @llvm.lifetime.end.p0(i64 20, ptr nonnull %6) #12
  br label %21

21:                                               ; preds = %20, %10
  %22 = call noalias ptr @CRYPTO_zalloc(i64 noundef 1, ptr noundef nonnull @.str.9, i32 noundef 577) #12
  %23 = call i32 @test_ptr(ptr noundef nonnull @.str.9, i32 noundef 578, ptr noundef nonnull @.str.47, ptr noundef %22) #12
  %.not13 = icmp eq i32 %23, 0
  br i1 %.not13, label %25, label %24

24:                                               ; preds = %21
  call void (ptr, i32, ptr, ...) @test_info(ptr noundef nonnull @.str.9, i32 noundef 581, ptr noundef nonnull @.str.48) #12
  br label %25

.critedge:                                        ; preds = %13, %17, %19
  call void @llvm.lifetime.end.p0(i64 80, ptr nonnull %8) #12
  call void @llvm.lifetime.end.p0(i64 8, ptr nonnull %7) #12
  call void @llvm.lifetime.end.p0(i64 20, ptr nonnull %6) #12
  br label %25

25:                                               ; preds = %21, %.critedge, %5, %24
  %.0 = phi ptr [ %22, %24 ], [ null, %5 ], [ null, %.critedge ], [ null, %21 ]
  ret ptr %.0
}